; Function Attrs: mustprogress uwtable
define dso_local void @_ZN4i18n12phonenumbers17RegexBasedMatcherC2Ev(ptr noundef nonnull align 8 captures(none) dereferenceable(24) initializes((0, 16)) %0) unnamed_addr #3 align 2 personality ptr @__gxx_personality_v0 {
  store ptr getelementptr inbounds nuw inrange(-16, 24) (i8, ptr @_ZTVN4i18n12phonenumbers17RegexBasedMatcherE, i64 16), ptr %0, align 8, !tbaa !4
  %2 = getelementptr inbounds nuw i8, ptr %0, i64 8
  %3 = tail call noalias noundef nonnull dereferenceable(8) ptr @_Znwm(i64 noundef 8) #8
  store ptr getelementptr inbounds nuw inrange(-16, 32) (i8, ptr @_ZTVN4i18n12phonenumbers16ICURegExpFactoryE, i64 16), ptr %3, align 8, !tbaa !4
  store ptr %3, ptr %2, align 8, !tbaa !7
  %4 = invoke noalias noundef nonnull dereferenceable(56) ptr @_Znwm(i64 noundef 56) #8
          to label %5 unwind label %.thread

5:                                                ; preds = %1
  invoke void @_ZN4i18n12phonenumbers11RegExpCacheC1ERKNS0_21AbstractRegExpFactoryEm(ptr noundef nonnull align 8 dereferenceable(56) %4, ptr noundef nonnull align 8 dereferenceable(8) %3, i64 noundef 128)
          to label %6 unwind label %9

6:                                                ; preds = %5
  %7 = getelementptr inbounds nuw i8, ptr %0, i64 16
  store ptr %4, ptr %7, align 8, !tbaa !12
  ret void

.thread:                                          ; preds = %1
  %8 = landingpad { ptr, i32 }
          cleanup
  br label %12

9:                                                ; preds = %5
  %10 = landingpad { ptr, i32 }
          cleanup
  tail call void @_ZdlPvm(ptr noundef nonnull %4, i64 noundef 56) #9
  %.pr = load ptr, ptr %2, align 8, !tbaa !7
  %11 = icmp eq ptr %.pr, null
  br i1 %11, label %_ZN5boost10scoped_ptrIKN4i18n12phonenumbers21AbstractRegExpFactoryEED2Ev.exit, label %._crit_edge

._crit_edge:                                      ; preds = %9
  %.pre = load ptr, ptr %.pr, align 8, !tbaa !4
  br label %12

12:                                               ; preds = %._crit_edge, %.thread
  %13 = phi ptr [ getelementptr inbounds nuw inrange(-16, 32) (i8, ptr @_ZTVN4i18n12phonenumbers16ICURegExpFactoryE, i64 16), %.thread ], [ %.pre, %._crit_edge ]
  %.pn7 = phi { ptr, i32 } [ %8, %.thread ], [ %10, %._crit_edge ]
  %14 = phi ptr [ %3, %.thread ], [ %.pr, %._crit_edge ]
  %15 = getelementptr inbounds nuw i8, ptr %13, i64 8
  %16 = load ptr, ptr %15, align 8
  tail call void %16(ptr noundef nonnull align 8 dereferenceable(8) %14) #10
  br label %_ZN5boost10scoped_ptrIKN4i18n12phonenumbers21AbstractRegExpFactoryEED2Ev.exit

_ZN5boost10scoped_ptrIKN4i18n12phonenumbers21AbstractRegExpFactoryEED2Ev.exit: ; preds = %12, %9
  %.pn.pn = phi { ptr, i32 } [ %10, %9 ], [ %.pn7, %12 ]
  resume { ptr, i32 } %.pn.pn
}